Certificate:
    Data:
        Version: 3 (0x2)
        Serial Number:
            af:97:27:01:47:e3:37:39:c7:f4:b4:8e
    Signature Algorithm: sha384WithRSAEncryption
        Issuer: C=HU, ST=Budapest, L=Budapest, O=CrySyS Lab HomeWork, OU=CrySyS Lab HomeWork, CN=CA
        Validity
            Not Before: Jan  1 01:01:01 2016
            Not After : May  2 03:48:38 2020
        Subject: C=HU, ST=Budapest, O=CrySyS Lab HomeWork, OU=CrySyS Lab HomeWork, CN=JQWGHK163
        Subject Public Key Info:
            Public Key Algorithm: rsaEncryption
                Public-Key: (2048 bit)
                Modulus:
                    00:d0:88:c2:a6:c0:82:27:40:3c:53:72:a2:62:d3:
                    a2:92:13:b2:ba:b7:77:30:7b:1b:69:90:18:55:f0:
                    01:42:cb:b7:51:7b:b0:29:bb:07:bb:35:b3:0e:da:
                    1d:4d:03:5b:55:d9:f9:14:aa:da:48:14:ae:5b:5f:
                    46:1e:e4:e7:ca:87:18:5d:4e:a6:50:3b:9b:e6:77:
                    03:c6:0e:dc:1e:92:37:f4:64:5f:58:42:00:11:2c:
                    02:c4:61:f0:2f:8f:e3:4a:88:8c:07:9e:46:87:8e:
                    f7:d4:e4:c3:b9:a9:5b:4a:06:a3:56:a1:13:2f:f9:
                    c6:6a:d2:c6:7d:29:7a:53:15:cc:46:67:59:fc:5f:
                    32:b4:11:02:a5:4a:35:7f:bd:dc:ad:58:31:07:fd:
                    28:a1:29:77:58:dc:cb:a4:1c:12:58:eb:44:08:db:
                    03:f8:86:e8:7a:b8:e8:62:40:d3:bc:45:35:b7:6d:
                    be:c4:c8:bc:4c:64:3d:3d:71:45:72:2c:b0:8a:8e:
                    8d:9c:9e:4c:09:95:5a:6d:6d:36:41:b4:0d:2e:14:
                    a5:82:f1:2b:e0:96:1a:66:1b:c2:16:67:4a:89:8e:
                    d7:d1:95:f3:7b:58:74:0a:bc:2d:9e:eb:bd:62:ea:
                    ac:63:d4:ff:82:6a:bb:46:6e:04:6b:de:bf:d5:f0:
                    86:7f
                Exponent: 65537 (0x10001)
        X509v3 extensions:
            X509v3 Basic Constraints: 
                CA:FALSE
            X509v3 Subject Key Identifier: 
                8A:AA:5F:86:AC:68:42:0C:31:9F:A9:7F:EE:C7:66:11:E2:5E:CB:CC
            X509v3 Authority Key Identifier: 
                keyid:E2:C2:3A:A1:47:12:83:97:51:A8:13:51:84:85:9D:E6:EA:72:15:67
                DirName:/C=HU/ST=Budapest/L=Budapest/O=CrySyS Lab HomeWork/OU=CrySyS Lab HomeWork/CN=CA
                serial:FA:1D:5D:08:D3:F8:F5:5D

    Signature Algorithm: sha384WithRSAEncryption
         35:4e:68:9f:d1:6c:45:79:24:58:82:84:42:ca:0f:9f:ff:92:
         0c:ff:78:f0:6d:2a:e4:3c:16:b4:be:ce:2e:4b:a0:6b:e3:33:
         71:2e:ef:f8:2e:49:af:86:f0:a6:ff:30:aa:a1:cd:9a:c8:12:
         c5:de:47:23:3a:b0:2d:80:25:3a:68:67:72:01:fe:16:c2:13:
         be:52:8f:2d:63:4d:8d:ac:fc:27:34:49:67:f8:08:9d:31:ec:
         df:1a:a7:93:fb:b2:ad:b4:65:ea:f5:08:f5:c1:17:2d:f7:e1:
         47:3f:38:60:1b:4f:6e:e2:7a:21:48:69:b5:7d:68:a6:01:c0:
         da:70:7c:f2:c6:b7:7a:fd:43:73:93:8e:c9:9c:51:b8:d9:7c:
         d1:85:07:1e:28:c9:88:44:72:5d:1a:12:e9:c7:95:a0:61:80:
         bb:ba:d6:61:db:93:38:4e:f3:f5:56:a8:d3:33:db:8c:db:8f:
         7f:10:9d:1e:92:e9:39:aa:98:c9:1e:ae:cf:8e:3b:3d:5f:d8:
         61:ac:60:1b:59:49:f6:25:0f:b3:ee:79:25:4e:8e:7d:ae:f2:
         76:b5:78:25:b5:be:b0:2b:99:01:cb:30:89:c1:b3:20:f1:fd:
         2c:bf:2c:af:9f:d6:d7:1a:d1:26:b9:f3:d8:35:39:64:3b:ca:
         7e:a8:dc:0a:01:eb:8d:3d:94:d0:ec:15:38:0e:87:97:51:75:
         d2:53:eb:ea:c4:6f:0d:93:a8:00:20:78:0e:4b:5b:21:24:5b:
         f4:8f:d9:86:76:c0:b6:13:f9:f7:a1:32:55:20:9d:32:bb:9c:
         53:8f:ac:f5:57:24:12:44:02:a6:5b:59:62:0c:eb:c9:bd:6d:
         71:2c:b0:9a:98:75:a9:bd:cd:58:72:c7:c3:41:22:b2:c2:87:
         59:6a:93:67:8e:b1:00:3c:46:2c:d6:91:e9:02:13:13:42:c3:
         f3:0d:29:d7:6e:0d:ea:de:50:de:59:07:04:41:9e:41:9d:e8:
         9a:e5:6b:75:62:df:f7:6d:4a:91:b9:4d:22:3b:ad:bb:5d:5b:
         86:fe:0d:53:7c:6c:06:0c:3e:48:0c:17:6f:4e:5d:cc:03:c5:
         1b:dd:26:46:ef:79:cb:fe:0d:b7:dc:3e:3f:8a:70:5c:e7:d7:
         af:f6:71:a1:21:4c:1a:60:eb:ca:19:0e:49:a4:72:bc:a2:0f:
         c4:07:e4:f5:ec:37:b6:e3:7e:79:0c:e8:0f:b3:54:ed:33:33:
         8e:95:55:23:1f:06:f0:c9:57:1b:c2:74:73:0d:69:c3:da:11:
         2d:34:5f:cb:43:42:7c:ac:5e:e0:ec:0b:20:d9:a2:4a:b0:af:
         d5:b5:8e:74:d4:64:aa:52:50:e9:74:c4:d2:e5:58:5b:eb:45:
         34:2b:12:75:8c:8a:4f:43:cc:f9:75:aa:a9:98:ce:06:75:75:
         61:aa:32:7e:d7:cd:29:a2:26:72:ed:df:96:35:15:5e:0b:6d:
         f9:10:16:ce:f1:9e:b3:fe:0a:cf:f0:b2:a7:6e:cf:ff:30:c4:
         cf:17:4b:a7:76:1c:59:63:6c:c1:a2:dc:43:36:ca:6c:1a:f7:
         3a:5a:86:76:41:3a:4e:f6:a8:0f:9e:55:99:01:91:0f:b4:b8:
         35:aa:8b:10:09:91:33:0d:52:47:e8:23:e2:78:c5:9b:79:d7:
         70:2c:86:35:af:70:92
-----BEGIN CERTIFICATE-----
MIIF2DCCA0OgAwIBAgINAK+XJwFH4zc5x/S0jjANBgkqhkiG9w0BAQwFADB8MQsw
CQYDVQQGEwJIVTERMA8GA1UECBMIQnVkYXBlc3QxETAPBgNVBAcTCEJ1ZGFwZXN0
MRwwGgYDVQQKExNDcnlTeVMgTGFiIEhvbWVXb3JrMRwwGgYDVQQLExNDcnlTeVMg
TGFiIEhvbWVXb3JrMQswCQYDVQQDEwJDQTAmFxExNjAxMDEwMTAxMDErMDEwMBcR
MjAwNTAyMDM0ODM4KzAxMDAwcDELMAkGA1UEBhMCSFUxETAPBgNVBAgTCEJ1ZGFw
ZXN0MRwwGgYDVQQKExNDcnlTeVMgTGFiIEhvbWVXb3JrMRwwGgYDVQQLExNDcnlT
eVMgTGFiIEhvbWVXb3JrMRIwEAYDVQQDEwlKUVdHSEsxNjMwggEiMA0GCSqGSIb3
DQEBAQUAA4IBDwAwggEKAoIBAQDQiMKmwIInQDxTcqJi06KSE7K6t3cwextpkBhV
8AFCy7dRe7Apuwe7NbMO2h1NA1tV2fkUqtpIFK5bX0Ye5OfKhxhdTqZQO5vmdwPG
Dtwekjf0ZF9YQgARLALEYfAvj+NKiIwHnkaHjvfU5MO5qVtKBqNWoRMv+cZq0sZ9
KXpTFcxGZ1n8XzK0EQKlSjV/vdytWDEH/SihKXdY3MukHBJY60QI2wP4huh6uOhi
QNO8RTW3bb7EyLxMZD09cUVyLLCKjo2cnkwJlVptbTZBtA0uFKWC8SvglhpmG8IW
Z0qJjtfRlfN7WHQKvC2e671i6qxj1P+CartGbgRr3r/V8IZ/AgMBAAGjgd8wgdww
CQYDVR0TBAIwADAdBgNVHQ4EFgQUiqpfhqxoQgwxn6l/7sdmEeJey8wwga8GA1Ud
IwSBpzCBpIAU4sI6oUcSg5dRqBNRhIWd5upyFWehgYCkfjB8MQswCQYDVQQGEwJI
VTERMA8GA1UECBMIQnVkYXBlc3QxETAPBgNVBAcTCEJ1ZGFwZXN0MRwwGgYDVQQK
ExNDcnlTeVMgTGFiIEhvbWVXb3JrMRwwGgYDVQQLExNDcnlTeVMgTGFiIEhvbWVX
b3JrMQswCQYDVQQDEwJDQYIJAPodXQjT+PVdMA0GCSqGSIb3DQEBDAUAA4ICfgA1
Tmif0WxFeSRYgoRCyg+f/5IM/3jwbSrkPBa0vs4uS6Br4zNxLu/4LkmvhvCm/zCq
oc2ayBLF3kcjOrAtgCU6aGdyAf4WwhO+Uo8tY02NrPwnNEln+AidMezfGqeT+7Kt
tGXq9Qj1wRct9+FHPzhgG09u4nohSGm1fWimAcDacHzyxrd6/UNzk47JnFG42XzR
hQceKMmIRHJdGhLpx5WgYYC7utZh25M4TvP1VqjTM9uM249/EJ0ekuk5qpjJHq7P
jjs9X9hhrGAbWUn2JQ+z7nklTo59rvJ2tXgltb6wK5kByzCJwbMg8f0svyyvn9bX
GtEmufPYNTlkO8p+qNwKAeuNPZTQ7BU4DoeXUXXSU+vqxG8Nk6gAIHgOS1shJFv0
j9mGdsC2E/n3oTJVIJ0yu5xTj6z1VyQSRAKmW1liDOvJvW1xLLCamHWpvc1YcsfD
QSKywodZapNnjrEAPEYs1pHpAhMTQsPzDSnXbg3q3lDeWQcEQZ5Bneia5Wt1Yt/3
bUqRuU0iO627XVuG/g1TfGwGDD5IDBdvTl3MA8Ub3SZG73nL/g233D4/inBc59ev
9nGhIUwaYOvKGQ5JpHK8og/EB+T17De24355DOgPs1TtMzOOlVUjHwbwyVcbwnRz
DWnD2hEtNF/LQ0J8rF7g7Asg2aJKsK/VtY501GSqUlDpdMTS5Vhb60U0KxJ1jIpP
Q8z5daqpmM4GdXVhqjJ+180poiZy7d+WNRVeC235EBbO8Z6z/grP8LKnbs//MMTP
F0undhxZY2zBotxDNspsGvc6WoZ2QTpO9qgPnlWZAZEPtLg1qosQCZEzDVJH6CPi
eMWbeddwLIY1r3CS
-----END CERTIFICATE-----
